(dp1
S'object_max_surf_dist'
p2
(dp3
I0
(lp4
(I112
I122
tp5
ag5
ag5
ag5
ag5
ag5
ag5
ag5
ag5
ag5
ag5
ag5
ag5
ag5
ag5
ag5
ag5
ag5
ag5
ag5
asI1
(lp6
g5
ag5
ag5
ag5
ag5
ag5
ag5
ag5
ag5
ag5
ag5
ag5
ag5
ag5
ag5
ag5
ag5
ag5
ag5
ag5
assS'object_min_surf_dist'
p7
(dp8
I0
(lp9
(I30
I30
tp10
ag10
ag10
ag10
ag10
ag10
ag10
ag10
ag10
ag10
ag10
ag10
ag10
ag10
ag10
ag10
ag10
ag10
ag10
ag10
asI1
(lp11
g10
ag10
ag10
ag10
ag10
ag10
ag10
ag10
ag10
ag10
ag10
ag10
ag10
ag10
ag10
ag10
ag10
ag10
ag10
ag10
assS'object_names'
p12
(lp13
S'Ea'
p14
aS'Ep'
p15
asS'silent'
p16
I00
sS'max_delta_k'
p17
I6
sS'K'
I100
sS'object_seedpoints'
p18
(dp19
I0
(lp20
NaNaNaNaNaNaNaNaNaNaNaNaNaNaNaNaNaNaNacnumpy.core.multiarray
_reconstruct
p21
(cnumpy
ndarray
p22
(I0
tS'b'
tRp23
(I1
(I2
tcnumpy
dtype
p24
(S'i8'
I0
I1
tRp25
(I3
S'<'
NNNI-1
I-1
I0
tbI00
S'\x91\x00\x00\x00\x00\x00\x00\x00\xa0\x00\x00\x00\x00\x00\x00\x00'
tbasI1
(lp26
NaNaNaNaNaNaNaNaNaNaNaNaNaNaNaNaNaNaNag21
(g22
(I0
tS'b'
tRp27
(I1
(I2
tg25
I00
S'z\x00\x00\x00\x00\x00\x00\x00a\x00\x00\x00\x00\x00\x00\x00'
tbassS'object_visibility'
p28
(dp29
I0
(lp30
I01
aI01
aI01
aI01
aI01
aI01
aI01
aI01
aI01
aI01
aI01
aI01
aI01
aI01
aI01
aI01
aI01
aI01
aI01
aI01
asI1
(lp31
I01
aI01
aI01
aI01
aI01
aI01
aI01
aI01
aI01
aI01
aI01
aI01
aI01
aI01
aI01
aI01
aI01
aI01
aI01
aI01
assS'object_areas'
p32
(dp33
I0
(lp34
I0
aI0
aI0
aI0
aI0
aI0
aI0
aI0
aI0
aI0
aI0
aI0
aI0
aI0
aI0
aI0
aI0
aI0
aI0
aI0
asI1
(lp35
I0
aI0
aI0
aI0
aI0
aI0
aI0
aI0
aI0
aI0
aI0
aI0
aI0
aI0
aI0
aI0
aI0
aI0
aI0
aI0
ass.